target datalayout = "e-m:e-p270:32:32-p271:32:32-p272:64:64-i64:64-i128:128-f80:128-n8:16:32:64-S128"
target triple = "x86_64-pc-linux-gnu"

%struct.jv = type { i8, i8, i16, i32, %union.anon }
%union.anon = type { ptr }
%struct.bytecode = type { ptr, i32, i32, i32, %struct.jv, ptr, ptr, i32, ptr, %struct.jv }
%struct.symbol_table = type { ptr, i32, %struct.jv }

; Function Attrs: nounwind uwtable
define internal void @symbol_table_free(ptr noundef %0) #0 {
  %2 = alloca ptr, align 8
  store ptr %0, ptr %2, align 8, !tbaa !43
  %3 = load ptr, ptr %2, align 8, !tbaa !43
  %4 = getelementptr inbounds nuw %struct.symbol_table, ptr %3, i32 0, i32 0
  %5 = load ptr, ptr %4, align 8, !tbaa !44
  call void @jv_mem_free(ptr noundef %5)
  %6 = load ptr, ptr %2, align 8, !tbaa !43
  %7 = getelementptr inbounds nuw %struct.symbol_table, ptr %6, i32 0, i32 2
  %8 = getelementptr inbounds nuw { i64, ptr }, ptr %7, i32 0, i32 0
  %9 = load i64, ptr %8, align 8
  %10 = getelementptr inbounds nuw { i64, ptr }, ptr %7, i32 0, i32 1
  %11 = load ptr, ptr %10, align 8
  call void @jv_free(i64 %9, ptr %11)
  %12 = load ptr, ptr %2, align 8, !tbaa !43
  call void @jv_mem_free(ptr noundef %12)
  ret void
}

; Function Attrs: nounwind uwtable
define dso_local void @bytecode_free(ptr noundef %0) #0 {
  %2 = alloca ptr, align 8
  %3 = alloca i32, align 4
  store ptr %0, ptr %2, align 8, !tbaa !16
  %4 = load ptr, ptr %2, align 8, !tbaa !16
  %5 = icmp ne ptr %4, null
  br i1 %5, label %7, label %6

6:                                                ; preds = %1
  br label %55

7:                                                ; preds = %1
  %8 = load ptr, ptr %2, align 8, !tbaa !16
  %9 = getelementptr inbounds nuw %struct.bytecode, ptr %8, i32 0, i32 0
  %10 = load ptr, ptr %9, align 8, !tbaa !29
  call void @jv_mem_free(ptr noundef %10)
  %11 = load ptr, ptr %2, align 8, !tbaa !16
  %12 = getelementptr inbounds nuw %struct.bytecode, ptr %11, i32 0, i32 4
  %13 = getelementptr inbounds nuw { i64, ptr }, ptr %12, i32 0, i32 0
  %14 = load i64, ptr %13, align 8
  %15 = getelementptr inbounds nuw { i64, ptr }, ptr %12, i32 0, i32 1
  %16 = load ptr, ptr %15, align 8
  call void @jv_free(i64 %14, ptr %16)
  call void @llvm.lifetime.start.p0(i64 4, ptr %3) #4
  store i32 0, ptr %3, align 4, !tbaa !4
  br label %17

17:                                               ; preds = %32, %7
  %18 = load i32, ptr %3, align 4, !tbaa !4
  %19 = load ptr, ptr %2, align 8, !tbaa !16
  %20 = getelementptr inbounds nuw %struct.bytecode, ptr %19, i32 0, i32 7
  %21 = load i32, ptr %20, align 8, !tbaa !25
  %22 = icmp slt i32 %18, %21
  br i1 %22, label %24, label %23

23:                                               ; preds = %17
  call void @llvm.lifetime.end.p0(i64 4, ptr %3) #4
  br label %35

24:                                               ; preds = %17
  %25 = load ptr, ptr %2, align 8, !tbaa !16
  %26 = getelementptr inbounds nuw %struct.bytecode, ptr %25, i32 0, i32 6
  %27 = load ptr, ptr %26, align 8, !tbaa !26
  %28 = load i32, ptr %3, align 4, !tbaa !4
  %29 = sext i32 %28 to i64
  %30 = getelementptr inbounds ptr, ptr %27, i64 %29
  %31 = load ptr, ptr %30, align 8, !tbaa !16
  call void @bytecode_free(ptr noundef %31)
  br label %32

32:                                               ; preds = %24
  %33 = load i32, ptr %3, align 4, !tbaa !4
  %34 = add nsw i32 %33, 1
  store i32 %34, ptr %3, align 4, !tbaa !4
  br label %17, !llvm.loop !42

35:                                               ; preds = %23
  %36 = load ptr, ptr %2, align 8, !tbaa !16
  %37 = getelementptr inbounds nuw %struct.bytecode, ptr %36, i32 0, i32 8
  %38 = load ptr, ptr %37, align 8, !tbaa !40
  %39 = icmp ne ptr %38, null
  br i1 %39, label %44, label %40

40:                                               ; preds = %35
  %41 = load ptr, ptr %2, align 8, !tbaa !16
  %42 = getelementptr inbounds nuw %struct.bytecode, ptr %41, i32 0, i32 5
  %43 = load ptr, ptr %42, align 8, !tbaa !38
  call void @symbol_table_free(ptr noundef %43)
  br label %44

44:                                               ; preds = %40, %35
  %45 = load ptr, ptr %2, align 8, !tbaa !16
  %46 = getelementptr inbounds nuw %struct.bytecode, ptr %45, i32 0, i32 6
  %47 = load ptr, ptr %46, align 8, !tbaa !26
  call void @jv_mem_free(ptr noundef %47)
  %48 = load ptr, ptr %2, align 8, !tbaa !16
  %49 = getelementptr inbounds nuw %struct.bytecode, ptr %48, i32 0, i32 9
  %50 = getelementptr inbounds nuw { i64, ptr }, ptr %49, i32 0, i32 0
  %51 = load i64, ptr %50, align 8
  %52 = getelementptr inbounds nuw { i64, ptr }, ptr %49, i32 0, i32 1
  %53 = load ptr, ptr %52, align 8
  call void @jv_free(i64 %51, ptr %53)
  %54 = load ptr, ptr %2, align 8, !tbaa !16
  call void @jv_mem_free(ptr noundef %54)
  br label %55

55:                                               ; preds = %44, %6
  ret void
}