; Function Attrs: nounwind uwtable
define dso_local void @bytecode_free(ptr noundef %0) local_unnamed_addr #2 {
  %.not = icmp eq ptr %0, null
  br i1 %.not, label %36, label %2

2:                                                ; preds = %1
  %3 = load ptr, ptr %0, align 8, !tbaa !23
  tail call void @jv_mem_free(ptr noundef %3) #6
  %4 = getelementptr inbounds nuw i8, ptr %0, i64 24
  %5 = load i64, ptr %4, align 8
  %6 = getelementptr inbounds nuw i8, ptr %0, i64 32
  %7 = load ptr, ptr %6, align 8
  tail call void @jv_free(i64 %5, ptr %7) #6
  %8 = getelementptr inbounds nuw i8, ptr %0, i64 56
  %9 = load i32, ptr %8, align 8, !tbaa !25
  %10 = icmp sgt i32 %9, 0
  br i1 %10, label %.lr.ph, label %._crit_edge

.lr.ph:                                           ; preds = %2
  %11 = getelementptr inbounds nuw i8, ptr %0, i64 48
  br label %14

._crit_edge:                                      ; preds = %14, %2
  %12 = getelementptr inbounds nuw i8, ptr %0, i64 64
  %13 = load ptr, ptr %12, align 8, !tbaa !31
  %.not13 = icmp eq ptr %13, null
  br i1 %.not13, label %21, label %29

14:                                               ; preds = %.lr.ph, %14
  %indvars.iv = phi i64 [ 0, %.lr.ph ], [ %indvars.iv.next, %14 ]
  %15 = load ptr, ptr %11, align 8, !tbaa !26
  %16 = getelementptr inbounds nuw ptr, ptr %15, i64 %indvars.iv
  %17 = load ptr, ptr %16, align 8, !tbaa !27
  tail call void @bytecode_free(ptr noundef %17)
  %indvars.iv.next = add nuw nsw i64 %indvars.iv, 1
  %18 = load i32, ptr %8, align 8, !tbaa !25
  %19 = sext i32 %18 to i64
  %20 = icmp slt i64 %indvars.iv.next, %19
  br i1 %20, label %14, label %._crit_edge, !llvm.loop !36

21:                                               ; preds = %._crit_edge
  %22 = getelementptr inbounds nuw i8, ptr %0, i64 40
  %23 = load ptr, ptr %22, align 8, !tbaa !34
  %24 = load ptr, ptr %23, align 8, !tbaa !37
  tail call void @jv_mem_free(ptr noundef %24) #6
  %25 = getelementptr inbounds nuw i8, ptr %23, i64 16
  %26 = load i64, ptr %25, align 8
  %27 = getelementptr inbounds nuw i8, ptr %23, i64 24
  %28 = load ptr, ptr %27, align 8
  tail call void @jv_free(i64 %26, ptr %28) #6
  tail call void @jv_mem_free(ptr noundef nonnull %23) #6
  br label %29

29:                                               ; preds = %21, %._crit_edge
  %30 = getelementptr inbounds nuw i8, ptr %0, i64 48
  %31 = load ptr, ptr %30, align 8, !tbaa !26
  tail call void @jv_mem_free(ptr noundef %31) #6
  %32 = getelementptr inbounds nuw i8, ptr %0, i64 72
  %33 = load i64, ptr %32, align 8
  %34 = getelementptr inbounds nuw i8, ptr %0, i64 80
  %35 = load ptr, ptr %34, align 8
  tail call void @jv_free(i64 %33, ptr %35) #6
  tail call void @jv_mem_free(ptr noundef nonnull %0) #6
  br label %36

36:                                               ; preds = %1, %29
  ret void
}